; ModuleID = '22/1081.c'
source_filename = "22/1081.c"
target datalayout = "e-m:e-p270:32:32-p271:32:32-p272:64:64-i64:64-f80:128-n8:16:32:64-S128"
target triple = "x86_64-pc-linux-gnu"

@.str = private unnamed_addr constant [3 x i8] c"No\00", align 1
@.str.1 = private unnamed_addr constant [3 x i8] c"%d\00", align 1

; Function Attrs: noinline nounwind uwtable
define dso_local i32 @main() #0 {
  %1 = alloca i32, align 4
  %2 = alloca i32, align 4
  %3 = alloca i32, align 4
  %4 = alloca i32, align 4
  %5 = alloca i32, align 4
  %6 = alloca i32, align 4
  %7 = alloca [500 x i32], align 16
  %8 = alloca [3000 x i8], align 16
  %9 = alloca i32, align 4
  %10 = alloca i32, align 4
  store i32 0, i32* %1, align 4
  store i32 0, i32* %3, align 4
  store i32 0, i32* %4, align 4
  store i32 0, i32* %5, align 4
  %11 = bitcast [500 x i32]* %7 to i8*
  call void @llvm.memset.p0i8.i64(i8* align 16 %11, i8 0, i64 2000, i1 false)
  %12 = getelementptr inbounds [3000 x i8], [3000 x i8]* %8, i64 0, i64 0
  %13 = call i32 (i8*, ...) bitcast (i32 (...)* @gets to i32 (i8*, ...)*)(i8* %12)
  br label %14

14:                                               ; preds = %65, %0
  %15 = load i32, i32* %3, align 4
  %16 = sext i32 %15 to i64
  %17 = getelementptr inbounds [3000 x i8], [3000 x i8]* %8, i64 0, i64 %16
  %18 = load i8, i8* %17, align 1
  %19 = sext i8 %18 to i32
  %20 = icmp ne i32 %19, 0
  br i1 %20, label %21, label %66

21:                                               ; preds = %14
  br label %22

22:                                               ; preds = %38, %21
  %23 = load i32, i32* %3, align 4
  %24 = sext i32 %23 to i64
  %25 = getelementptr inbounds [3000 x i8], [3000 x i8]* %8, i64 0, i64 %24
  %26 = load i8, i8* %25, align 1
  %27 = sext i8 %26 to i32
  %28 = icmp sle i32 %27, 57
  br i1 %28, label %29, label %36

29:                                               ; preds = %22
  %30 = load i32, i32* %3, align 4
  %31 = sext i32 %30 to i64
  %32 = getelementptr inbounds [3000 x i8], [3000 x i8]* %8, i64 0, i64 %31
  %33 = load i8, i8* %32, align 1
  %34 = sext i8 %33 to i32
  %35 = icmp sge i32 %34, 48
  br label %36

36:                                               ; preds = %29, %22
  %37 = phi i1 [ false, %22 ], [ %35, %29 ]
  br i1 %37, label %38, label %57

38:                                               ; preds = %36
  %39 = load i32, i32* %4, align 4
  %40 = sext i32 %39 to i64
  %41 = getelementptr inbounds [500 x i32], [500 x i32]* %7, i64 0, i64 %40
  %42 = load i32, i32* %41, align 4
  %43 = mul nsw i32 %42, 10
  %44 = load i32, i32* %3, align 4
  %45 = add nsw i32 %44, 1
  store i32 %45, i32* %3, align 4
  %46 = sext i32 %44 to i64
  %47 = getelementptr inbounds [3000 x i8], [3000 x i8]* %8, i64 0, i64 %46
  %48 = load i8, i8* %47, align 1
  %49 = sext i8 %48 to i32
  %50 = add nsw i32 %43, %49
  %51 = sub nsw i32 %50, 48
  %52 = load i32, i32* %4, align 4
  %53 = sext i32 %52 to i64
  %54 = getelementptr inbounds [500 x i32], [500 x i32]* %7, i64 0, i64 %53
  store i32 %51, i32* %54, align 4
  %55 = load i32, i32* %5, align 4
  %56 = add nsw i32 %55, 1
  store i32 %56, i32* %5, align 4
  br label %22

57:                                               ; preds = %36
  %58 = load i32, i32* %3, align 4
  %59 = add nsw i32 %58, 1
  store i32 %59, i32* %3, align 4
  %60 = load i32, i32* %5, align 4
  %61 = icmp ne i32 %60, 0
  br i1 %61, label %62, label %65

62:                                               ; preds = %57
  store i32 0, i32* %5, align 4
  %63 = load i32, i32* %4, align 4
  %64 = add nsw i32 %63, 1
  store i32 %64, i32* %4, align 4
  br label %65

65:                                               ; preds = %62, %57
  br label %14

66:                                               ; preds = %14
  %67 = load i32, i32* %4, align 4
  %68 = icmp eq i32 %67, 1
  br i1 %68, label %69, label %71

69:                                               ; preds = %66
  %70 = call i32 (i8*, ...) @printf(i8* getelementptr inbounds ([3 x i8], [3 x i8]* @.str, i64 0, i64 0))
  br label %124

71:                                               ; preds = %66
  %72 = getelementptr inbounds [500 x i32], [500 x i32]* %7, i64 0, i64 0
  %73 = load i32, i32* %72, align 16
  store i32 %73, i32* %9, align 4
  store i32 -1, i32* %10, align 4
  store i32 0, i32* %3, align 4
  br label %74

74:                                               ; preds = %112, %71
  %75 = load i32, i32* %3, align 4
  %76 = load i32, i32* %4, align 4
  %77 = icmp slt i32 %75, %76
  br i1 %77, label %78, label %115

78:                                               ; preds = %74
  %79 = load i32, i32* %3, align 4
  %80 = sext i32 %79 to i64
  %81 = getelementptr inbounds [500 x i32], [500 x i32]* %7, i64 0, i64 %80
  %82 = load i32, i32* %81, align 4
  %83 = load i32, i32* %9, align 4
  %84 = icmp sgt i32 %82, %83
  br i1 %84, label %85, label %91

85:                                               ; preds = %78
  %86 = load i32, i32* %9, align 4
  store i32 %86, i32* %10, align 4
  %87 = load i32, i32* %3, align 4
  %88 = sext i32 %87 to i64
  %89 = getelementptr inbounds [500 x i32], [500 x i32]* %7, i64 0, i64 %88
  %90 = load i32, i32* %89, align 4
  store i32 %90, i32* %9, align 4
  br label %111

91:                                               ; preds = %78
  %92 = load i32, i32* %3, align 4
  %93 = sext i32 %92 to i64
  %94 = getelementptr inbounds [500 x i32], [500 x i32]* %7, i64 0, i64 %93
  %95 = load i32, i32* %94, align 4
  %96 = load i32, i32* %10, align 4
  %97 = icmp sgt i32 %95, %96
  br i1 %97, label %98, label %110

98:                                               ; preds = %91
  %99 = load i32, i32* %3, align 4
  %100 = sext i32 %99 to i64
  %101 = getelementptr inbounds [500 x i32], [500 x i32]* %7, i64 0, i64 %100
  %102 = load i32, i32* %101, align 4
  %103 = load i32, i32* %9, align 4
  %104 = icmp slt i32 %102, %103
  br i1 %104, label %105, label %110

105:                                              ; preds = %98
  %106 = load i32, i32* %3, align 4
  %107 = sext i32 %106 to i64
  %108 = getelementptr inbounds [500 x i32], [500 x i32]* %7, i64 0, i64 %107
  %109 = load i32, i32* %108, align 4
  store i32 %109, i32* %10, align 4
  br label %110

110:                                              ; preds = %105, %98, %91
  br label %111

111:                                              ; preds = %110, %85
  br label %112

112:                                              ; preds = %111
  %113 = load i32, i32* %3, align 4
  %114 = add nsw i32 %113, 1
  store i32 %114, i32* %3, align 4
  br label %74

115:                                              ; preds = %74
  %116 = load i32, i32* %10, align 4
  %117 = icmp eq i32 %116, -1
  br i1 %117, label %118, label %120

118:                                              ; preds = %115
  %119 = call i32 (i8*, ...) @printf(i8* getelementptr inbounds ([3 x i8], [3 x i8]* @.str, i64 0, i64 0))
  br label %123

120:                                              ; preds = %115
  %121 = load i32, i32* %10, align 4
  %122 = call i32 (i8*, ...) @printf(i8* getelementptr inbounds ([3 x i8], [3 x i8]* @.str.1, i64 0, i64 0), i32 %121)
  br label %123

123:                                              ; preds = %120, %118
  br label %124

124:                                              ; preds = %123, %69
  ret i32 0
}

; Function Attrs: argmemonly nounwind willreturn
declare void @llvm.memset.p0i8.i64(i8* nocapture writeonly, i8, i64, i1 immarg) #1

declare dso_local i32 @gets(...) #2

declare dso_local i32 @printf(i8*, ...) #2


!llvm.module.flags = !{!0}
!llvm.ident = !{!1}

!0 = !{i32 1, !"wchar_size", i32 4}
!1 = !{!"clang version 10.0.0-4ubuntu1 "}
